; Function Attrs: mustprogress nofree norecurse nosync nounwind willreturn memory(argmem: readwrite) uwtable
define noundef zeroext i1 @_ZN3net17AeadBaseEncrypter14SetNoncePrefixEN4base16BasicStringPieceINSt7__cxx1112basic_stringIcSt11char_traitsIcESaIcEEEEE(ptr noundef nonnull align 8 captures(none) dereferenceable(96) %0, ptr readonly captures(none) %1, i64 %2) unnamed_addr #7 align 2 personality ptr @__gxx_personality_v0 {
  %4 = getelementptr inbounds nuw i8, ptr %0, i64 32
  %5 = load i64, ptr %4, align 8, !tbaa !17
  %.not = icmp eq i64 %2, %5
  br i1 %.not, label %6, label %8

6:                                                ; preds = %3
  %7 = getelementptr inbounds nuw i8, ptr %0, i64 72
  tail call void @llvm.memcpy.p0.p0.i64(ptr nonnull align 8 %7, ptr align 1 %1, i64 %2, i1 false)
  br label %8

8:                                                ; preds = %3, %6
  ret i1 %.not
}